target datalayout = "e-m:e-p270:32:32-p271:32:32-p272:64:64-i64:64-i128:128-f80:128-n8:16:32:64-S128"
target triple = "x86_64-pc-linux-gnu"

%"struct.Luau::Position" = type { i32, i32 }
%"struct.Luau::AnyTypeSummary::FindReturnAncestry" = type <{ %"class.Luau::AstVisitor", ptr, ptr, %"struct.Luau::Position", i8, [7 x i8] }>
%"class.Luau::AstVisitor" = type { ptr }

; Function Attrs: mustprogress nounwind uwtable
define dso_local noundef zeroext i1 @_ZN4Luau14AnyTypeSummary18FindReturnAncestry5visitEPNS_20AstStatLocalFunctionE(ptr noundef nonnull align 8 dereferenceable(40) %0, ptr noundef %1) unnamed_addr #2 align 2 {
  %3 = alloca ptr, align 8
  %4 = alloca ptr, align 8
  store ptr %0, ptr %3, align 8, !tbaa !486
  store ptr %1, ptr %4, align 8, !tbaa !78
  %5 = load ptr, ptr %3, align 8
  %6 = load ptr, ptr %4, align 8, !tbaa !78
  %7 = getelementptr inbounds nuw %"struct.Luau::AnyTypeSummary::FindReturnAncestry", ptr %5, i32 0, i32 1
  store ptr %6, ptr %7, align 8, !tbaa !299
  %8 = getelementptr inbounds nuw %"struct.Luau::AnyTypeSummary::FindReturnAncestry", ptr %5, i32 0, i32 4
  %9 = load i8, ptr %8, align 8, !tbaa !488, !range !28, !noundef !29
  %10 = trunc i8 %9 to i1
  %11 = xor i1 %10, true
  ret i1 %11
}